; Function Attrs: mustprogress nounwind uwtable
define hidden void @_ZN19OpenColorIO_v2_4dev18FormatMetadataImpl7setNameEPKc(ptr noundef nonnull align 8 dereferenceable(120) %this, ptr noundef %name) unnamed_addr #4 align 2 personality ptr @__gxx_personality_v0 {
entry:
  %attrib = alloca %"struct.std::pair", align 8
  %ref.tmp = alloca ptr, align 8
  %tobool.not = icmp eq ptr %name, null
  %cond = select i1 %tobool.not, ptr @.str.12, ptr %name
  store ptr %cond, ptr %ref.tmp, align 8
  invoke void @_ZNSt4pairINSt7__cxx1112basic_stringIcSt11char_traitsIcESaIcEEES5_EC2IRPKcS9_TnNSt9enable_ifIXaaclsr5_PCCPE22_MoveConstructiblePairIT_T0_EEclsr5_PCCPE30_ImplicitlyMoveConvertiblePairISC_SD_EEEbE4typeELb1EEEOSC_OSD_(ptr noundef nonnull align 8 dereferenceable(64) %attrib, ptr noundef nonnull align 8 dereferenceable(8) @_ZN19OpenColorIO_v2_4dev13METADATA_NAMEE, ptr noundef nonnull align 8 dereferenceable(8) %ref.tmp)
          to label %invoke.cont unwind label %terminate.lpad

invoke.cont:                                      ; preds = %entry
  call void @_ZN19OpenColorIO_v2_4dev18FormatMetadataImpl12addAttributeERKSt4pairINSt7__cxx1112basic_stringIcSt11char_traitsIcESaIcEEES7_E(ptr noundef nonnull align 8 dereferenceable(120) %this, ptr noundef nonnull align 8 dereferenceable(64) %attrib) #17
  %second.i = getelementptr inbounds i8, ptr %attrib, i64 32
  call void @_ZNSt7__cxx1112basic_stringIcSt11char_traitsIcESaIcEED1Ev(ptr noundef nonnull align 8 dereferenceable(32) %second.i) #17
  call void @_ZNSt7__cxx1112basic_stringIcSt11char_traitsIcESaIcEED1Ev(ptr noundef nonnull align 8 dereferenceable(32) %attrib) #17
  ret void

terminate.lpad:                                   ; preds = %entry
  %0 = landingpad { ptr, i32 }
          catch ptr null
  %1 = extractvalue { ptr, i32 } %0, 0
  call void @__clang_call_terminate(ptr %1) #21
  unreachable
}